Certificate:
    Data:
        Version: 3 (0x2)
        Serial Number:
            33:fb:18:fb:69:9a:cf:99:e9:d6:d0:ad:54:c6:40:ee:39:8d:7b:81
        Signature Algorithm: ecdsa-with-SHA256
        Issuer: C=KR, ST=Seoul, L=Seoul, O=Demo CA, OU=Demo CA, CN=www.demo-ca.com/emailAddress=ca@demo-ca.com
        Validity
            Not Before: Dec 13 04:00:53 2021 GMT
            Not After : Dec 13 04:00:53 2022 GMT
        Subject: C=US, ST=Indiana, L=West Lafayette, O=MT-DPI Middlebox, OU=MT-DPI, CN=*.mt-mb.com/emailAddress=mb@mt-dpi.com
        Subject Public Key Info:
            Public Key Algorithm: id-ecPublicKey
                Public-Key: (256 bit)
                pub:
                    04:6e:9a:2e:7b:06:84:74:9d:3b:0e:fe:eb:0b:f8:
                    70:66:03:4a:38:55:20:ba:3d:f6:a6:ae:6f:98:18:
                    aa:1a:8b:d8:64:b6:d9:65:60:89:61:cd:0f:f7:d7:
                    45:c2:ee:2a:f1:2a:c8:d9:59:75:ce:3e:a7:aa:29:
                    45:f4:8f:ca:7f
                ASN1 OID: prime256v1
                NIST CURVE: P-256
        X509v3 extensions:
            X509v3 Basic Constraints: 
                CA:FALSE
            X509v3 Key Usage: 
                Digital Signature, Non Repudiation, Key Encipherment
            X509v3 Subject Alternative Name: 
                DNS:*.mt-dpi.com, DNS:*.mt-mb.com
    Signature Algorithm: ecdsa-with-SHA256
         30:45:02:20:1f:24:be:c8:d5:fe:4d:26:7f:f0:f7:3b:49:a7:
         2e:a3:e6:af:ed:8f:64:6e:60:99:87:50:09:21:73:86:ff:e0:
         02:21:00:86:0f:69:1c:f4:38:4a:6d:4b:c8:77:e9:42:30:78:
         ad:7d:fd:75:87:e9:d0:b1:91:34:b1:19:0b:97:06:0a:68
-----BEGIN CERTIFICATE-----
MIICZjCCAgygAwIBAgIUM/sY+2maz5np1tCtVMZA7jmNe4EwCgYIKoZIzj0EAwIw
gYoxCzAJBgNVBAYTAktSMQ4wDAYDVQQIDAVTZW91bDEOMAwGA1UEBwwFU2VvdWwx
EDAOBgNVBAoMB0RlbW8gQ0ExEDAOBgNVBAsMB0RlbW8gQ0ExGDAWBgNVBAMMD3d3
dy5kZW1vLWNhLmNvbTEdMBsGCSqGSIb3DQEJARYOY2FAZGVtby1jYS5jb20wHhcN
MjExMjEzMDQwMDUzWhcNMjIxMjEzMDQwMDUzWjCBmDELMAkGA1UEBhMCVVMxEDAO
BgNVBAgMB0luZGlhbmExFzAVBgNVBAcMDldlc3QgTGFmYXlldHRlMRkwFwYDVQQK
DBBNVC1EUEkgTWlkZGxlYm94MQ8wDQYDVQQLDAZNVC1EUEkxFDASBgNVBAMMCyou
bXQtbWIuY29tMRwwGgYJKoZIhvcNAQkBFg1tYkBtdC1kcGkuY29tMFkwEwYHKoZI
zj0CAQYIKoZIzj0DAQcDQgAEbpouewaEdJ07Dv7rC/hwZgNKOFUguj32pq5vmBiq
GovYZLbZZWCJYc0P99dFwu4q8SrI2Vl1zj6nqilF9I/Kf6NAMD4wCQYDVR0TBAIw
ADALBgNVHQ8EBAMCBeAwJAYDVR0RBB0wG4IMKi5tdC1kcGkuY29tggsqLm10LW1i
LmNvbTAKBggqhkjOPQQDAgNIADBFAiAfJL7I1f5NJn/w9ztJpy6j5q/tj2RuYJmH
UAkhc4b/4AIhAIYPaRz0OEptS8h36UIweK19/XWH6dCxkTSxGQuXBgpo
-----END CERTIFICATE-----
