Certificate:
    Data:
        Version: 3 (0x2)
        Serial Number:
            33:fb:18:fb:69:9a:cf:99:e9:d6:d0:ad:54:c6:40:ee:39:8d:7b:80
        Signature Algorithm: ecdsa-with-SHA256
        Issuer: C=KR, ST=Seoul, L=Seoul, O=Demo CA, OU=Demo CA, CN=www.demo-ca.com/emailAddress=ca@demo-ca.com
        Validity
            Not Before: Dec  2 05:57:06 2021 GMT
            Not After : Dec  2 05:57:06 2022 GMT
        Subject: C=KR, ST=Seoul, L=Seoul, O=MT-DPI, OU=MT-DPI, CN=www.mt-dpi.com/emailAddress=www@mt-dpi.com
        Subject Public Key Info:
            Public Key Algorithm: id-ecPublicKey
                Public-Key: (256 bit)
                pub:
                    04:27:d6:9e:9a:69:e2:c4:b8:27:e8:eb:f7:dd:79:
                    cd:6a:68:de:96:60:41:b5:29:a6:3a:df:0d:47:93:
                    f9:ed:e8:46:ea:8b:49:e7:1d:1b:60:2f:21:b3:89:
                    a3:63:08:58:90:f2:f8:19:55:bc:64:1c:2e:89:e6:
                    9c:93:06:1e:b8
                ASN1 OID: prime256v1
                NIST CURVE: P-256
        X509v3 extensions:
            X509v3 Basic Constraints: 
                CA:FALSE
            X509v3 Key Usage: 
                Digital Signature, Non Repudiation, Key Encipherment
            X509v3 Subject Alternative Name: 
                DNS:*.mt-dpi.com
    Signature Algorithm: ecdsa-with-SHA256
         30:46:02:21:00:d0:d4:a1:60:0c:86:49:15:f3:62:23:58:89:
         c4:8f:38:58:27:76:6a:b6:5e:70:44:39:f3:15:d2:07:3e:d8:
         12:02:21:00:a6:3b:2b:db:94:a8:1f:59:07:6a:66:df:ce:fb:
         64:b7:19:54:c9:df:1d:a6:b1:13:09:be:1b:16:1a:6e:11:0e
-----BEGIN CERTIFICATE-----
MIICSTCCAe6gAwIBAgIUM/sY+2maz5np1tCtVMZA7jmNe4AwCgYIKoZIzj0EAwIw
gYoxCzAJBgNVBAYTAktSMQ4wDAYDVQQIDAVTZW91bDEOMAwGA1UEBwwFU2VvdWwx
EDAOBgNVBAoMB0RlbW8gQ0ExEDAOBgNVBAsMB0RlbW8gQ0ExGDAWBgNVBAMMD3d3
dy5kZW1vLWNhLmNvbTEdMBsGCSqGSIb3DQEJARYOY2FAZGVtby1jYS5jb20wHhcN
MjExMjAyMDU1NzA2WhcNMjIxMjAyMDU1NzA2WjCBhzELMAkGA1UEBhMCS1IxDjAM
BgNVBAgMBVNlb3VsMQ4wDAYDVQQHDAVTZW91bDEPMA0GA1UECgwGTVQtRFBJMQ8w
DQYDVQQLDAZNVC1EUEkxFzAVBgNVBAMMDnd3dy5tdC1kcGkuY29tMR0wGwYJKoZI
hvcNAQkBFg53d3dAbXQtZHBpLmNvbTBZMBMGByqGSM49AgEGCCqGSM49AwEHA0IA
BCfWnppp4sS4J+jr9915zWpo3pZgQbUppjrfDUeT+e3oRuqLSecdG2AvIbOJo2MI
WJDy+BlVvGQcLonmnJMGHrijMzAxMAkGA1UdEwQCMAAwCwYDVR0PBAQDAgXgMBcG
A1UdEQQQMA6CDCoubXQtZHBpLmNvbTAKBggqhkjOPQQDAgNJADBGAiEA0NShYAyG
SRXzYiNYicSPOFgndmq2XnBEOfMV0gc+2BICIQCmOyvblKgfWQdqZt/O+2S3GVTJ
3x2msRMJvhsWGm4RDg==
-----END CERTIFICATE-----
